target datalayout = "e-m:e-p270:32:32-p271:32:32-p272:64:64-i64:64-i128:128-f80:128-n8:16:32:64-S128"
target triple = "x86_64-pc-linux-gnu"

%"class.icu_77::SimpleFilteredSentenceBreakData" = type <{ ptr, %"class.icu_77::LocalPointer", %"class.icu_77::LocalPointer", %"struct.std::atomic", [4 x i8] }>
%"class.icu_77::LocalPointer" = type { %"class.icu_77::LocalPointerBase" }
%"class.icu_77::LocalPointerBase" = type { ptr }
%"struct.std::atomic" = type { %"struct.std::__atomic_base" }
%"struct.std::__atomic_base" = type { i32 }
%"class.icu_77::SimpleFilteredSentenceBreakIterator" = type { %"class.icu_77::BreakIterator", ptr, %"class.icu_77::LocalPointer.0", %"class.icu_77::internal::LocalOpenPointer" }
%"class.icu_77::BreakIterator" = type { %"class.icu_77::UObject", ptr, ptr, ptr }
%"class.icu_77::UObject" = type { ptr }
%"class.icu_77::LocalPointer.0" = type { %"class.icu_77::LocalPointerBase.1" }
%"class.icu_77::LocalPointerBase.1" = type { ptr }
%"class.icu_77::internal::LocalOpenPointer" = type { %"class.icu_77::LocalPointerBase.2" }
%"class.icu_77::LocalPointerBase.2" = type { ptr }

; Function Attrs: mustprogress uwtable
define linkonce_odr void @_ZN6icu_778internal16LocalOpenPointerI5UTextXadL_Z14utext_close_77EEE12adoptInsteadEPS2_(ptr noundef nonnull align 8 dereferenceable(8) %0, ptr noundef %1) #2 comdat align 2 {
  %3 = alloca ptr, align 8
  %4 = alloca ptr, align 8
  store ptr %0, ptr %3, align 8, !tbaa !36
  store ptr %1, ptr %4, align 8, !tbaa !38
  %5 = load ptr, ptr %3, align 8
  %6 = getelementptr inbounds nuw %"class.icu_77::LocalPointerBase.2", ptr %5, i32 0, i32 0
  %7 = load ptr, ptr %6, align 8, !tbaa !43
  %8 = icmp ne ptr %7, null
  br i1 %8, label %9, label %13

9:                                                ; preds = %2
  %10 = getelementptr inbounds nuw %"class.icu_77::LocalPointerBase.2", ptr %5, i32 0, i32 0
  %11 = load ptr, ptr %10, align 8, !tbaa !43
  %12 = call noundef ptr @utext_close_77(ptr noundef %11)
  br label %13

13:                                               ; preds = %9, %2
  %14 = load ptr, ptr %4, align 8, !tbaa !38
  %15 = getelementptr inbounds nuw %"class.icu_77::LocalPointerBase.2", ptr %5, i32 0, i32 0
  store ptr %14, ptr %15, align 8, !tbaa !43
  ret void
}

; Function Attrs: mustprogress nounwind uwtable
define linkonce_odr noundef ptr @_ZN6icu_7716LocalPointerBaseI5UTextE6orphanEv(ptr noundef nonnull align 8 dereferenceable(8) %0) #1 comdat align 2 {
  %2 = alloca ptr, align 8
  %3 = alloca ptr, align 8
  store ptr %0, ptr %2, align 8, !tbaa !44
  %4 = load ptr, ptr %2, align 8
  call void @llvm.lifetime.start.p0(i64 8, ptr %3) #13
  %5 = getelementptr inbounds nuw %"class.icu_77::LocalPointerBase.2", ptr %4, i32 0, i32 0
  %6 = load ptr, ptr %5, align 8, !tbaa !43
  store ptr %6, ptr %3, align 8, !tbaa !38
  %7 = getelementptr inbounds nuw %"class.icu_77::LocalPointerBase.2", ptr %4, i32 0, i32 0
  store ptr null, ptr %7, align 8, !tbaa !43
  %8 = load ptr, ptr %3, align 8, !tbaa !38
  call void @llvm.lifetime.end.p0(i64 8, ptr %3) #13
  ret ptr %8
}

; Function Attrs: mustprogress nounwind uwtable
define linkonce_odr noundef signext i8 @_ZNK6icu_7716LocalPointerBaseINS_10UCharsTrieEE7isValidEv(ptr noundef nonnull align 8 dereferenceable(8) %0) #1 comdat align 2 {
  %2 = alloca ptr, align 8
  store ptr %0, ptr %2, align 8, !tbaa !113
  %3 = load ptr, ptr %2, align 8
  %4 = getelementptr inbounds nuw %"class.icu_77::LocalPointerBase", ptr %3, i32 0, i32 0
  %5 = load ptr, ptr %4, align 8, !tbaa !14
  %6 = icmp ne ptr %5, null
  %7 = zext i1 %6 to i8
  ret i8 %7
}

; Function Attrs: mustprogress uwtable
define void @_ZN6icu_7735SimpleFilteredSentenceBreakIterator10resetStateER10UErrorCode(ptr noundef nonnull align 8 dereferenceable(56) %0, ptr noundef nonnull align 4 dereferenceable(4) %1) #2 align 2 {
  %3 = alloca ptr, align 8
  %4 = alloca ptr, align 8
  store ptr %0, ptr %3, align 8, !tbaa !17
  store ptr %1, ptr %4, align 8, !tbaa !40
  %5 = load ptr, ptr %3, align 8
  %6 = getelementptr inbounds nuw %"class.icu_77::SimpleFilteredSentenceBreakIterator", ptr %5, i32 0, i32 3
  %7 = getelementptr inbounds nuw %"class.icu_77::SimpleFilteredSentenceBreakIterator", ptr %5, i32 0, i32 2
  %8 = call noundef ptr @_ZNK6icu_7716LocalPointerBaseINS_13BreakIteratorEEptEv(ptr noundef nonnull align 8 dereferenceable(8) %7)
  %9 = getelementptr inbounds nuw %"class.icu_77::SimpleFilteredSentenceBreakIterator", ptr %5, i32 0, i32 3
  %10 = call noundef ptr @_ZN6icu_7716LocalPointerBaseI5UTextE6orphanEv(ptr noundef nonnull align 8 dereferenceable(8) %9)
  %11 = load ptr, ptr %4, align 8, !tbaa !40
  %12 = load ptr, ptr %8, align 8, !tbaa !10
  %13 = getelementptr inbounds ptr, ptr %12, i64 6
  %14 = load ptr, ptr %13, align 8
  %15 = call noundef ptr %14(ptr noundef nonnull align 8 dereferenceable(32) %8, ptr noundef %10, ptr noundef nonnull align 4 dereferenceable(4) %11)
  call void @_ZN6icu_778internal16LocalOpenPointerI5UTextXadL_Z14utext_close_77EEE12adoptInsteadEPS2_(ptr noundef nonnull align 8 dereferenceable(8) %6, ptr noundef %15)
  ret void
}

; Function Attrs: mustprogress nounwind uwtable
define linkonce_odr noundef zeroext i1 @_ZNK6icu_7731SimpleFilteredSentenceBreakData16hasBackwardsTrieEv(ptr noundef nonnull align 8 dereferenceable(28) %0) #1 comdat align 2 {
  %2 = alloca ptr, align 8
  store ptr %0, ptr %2, align 8, !tbaa !8
  %3 = load ptr, ptr %2, align 8
  %4 = getelementptr inbounds nuw %"class.icu_77::SimpleFilteredSentenceBreakData", ptr %3, i32 0, i32 2
  %5 = call noundef signext i8 @_ZNK6icu_7716LocalPointerBaseINS_10UCharsTrieEE7isValidEv(ptr noundef nonnull align 8 dereferenceable(8) %4)
  %6 = icmp ne i8 %5, 0
  ret i1 %6
}

; Function Attrs: mustprogress nounwind uwtable
define linkonce_odr noundef ptr @_ZNK6icu_7716LocalPointerBaseINS_13BreakIteratorEEptEv(ptr noundef nonnull align 8 dereferenceable(8) %0) #1 comdat align 2 {
  %2 = alloca ptr, align 8
  store ptr %0, ptr %2, align 8, !tbaa !30
  %3 = load ptr, ptr %2, align 8
  %4 = getelementptr inbounds nuw %"class.icu_77::LocalPointerBase.1", ptr %3, i32 0, i32 0
  %5 = load ptr, ptr %4, align 8, !tbaa !32
  ret ptr %5
}

; Function Attrs: mustprogress uwtable
define noundef signext i8 @_ZN6icu_7735SimpleFilteredSentenceBreakIterator10isBoundaryEi(ptr noundef nonnull align 8 dereferenceable(56) %0, i32 noundef %1) unnamed_addr #2 align 2 {
  %3 = alloca i8, align 1
  %4 = alloca ptr, align 8
  %5 = alloca i32, align 4
  %6 = alloca i32, align 4
  %7 = alloca i32, align 4
  %8 = alloca i32, align 4
  store ptr %0, ptr %4, align 8, !tbaa !17
  store i32 %1, ptr %5, align 4, !tbaa !46
  %9 = load ptr, ptr %4, align 8
  %10 = getelementptr inbounds nuw %"class.icu_77::SimpleFilteredSentenceBreakIterator", ptr %9, i32 0, i32 2
  %11 = call noundef ptr @_ZNK6icu_7716LocalPointerBaseINS_13BreakIteratorEEptEv(ptr noundef nonnull align 8 dereferenceable(8) %10)
  %12 = load i32, ptr %5, align 4, !tbaa !46
  %13 = load ptr, ptr %11, align 8, !tbaa !10
  %14 = getelementptr inbounds ptr, ptr %13, i64 17
  %15 = load ptr, ptr %14, align 8
  %16 = call noundef signext i8 %15(ptr noundef nonnull align 8 dereferenceable(32) %11, i32 noundef %12)
  %17 = icmp ne i8 %16, 0
  br i1 %17, label %19, label %18

18:                                               ; preds = %2
  store i8 0, ptr %3, align 1
  br label %32

19:                                               ; preds = %2
  %20 = getelementptr inbounds nuw %"class.icu_77::SimpleFilteredSentenceBreakIterator", ptr %9, i32 0, i32 1
  %21 = load ptr, ptr %20, align 8, !tbaa !19
  %22 = call noundef zeroext i1 @_ZNK6icu_7731SimpleFilteredSentenceBreakData16hasBackwardsTrieEv(ptr noundef nonnull align 8 dereferenceable(28) %21)
  br i1 %22, label %24, label %23

23:                                               ; preds = %19
  store i8 1, ptr %3, align 1
  br label %32

24:                                               ; preds = %19
  call void @llvm.lifetime.start.p0(i64 4, ptr %6) #13
  store i32 0, ptr %6, align 4, !tbaa !41
  call void @_ZN6icu_7735SimpleFilteredSentenceBreakIterator10resetStateER10UErrorCode(ptr noundef nonnull align 8 dereferenceable(56) %9, ptr noundef nonnull align 4 dereferenceable(4) %6)
  call void @llvm.lifetime.start.p0(i64 4, ptr %7) #13
  %25 = load i32, ptr %5, align 4, !tbaa !46
  %26 = call noundef i32 @_ZN6icu_7735SimpleFilteredSentenceBreakIterator16breakExceptionAtEi(ptr noundef nonnull align 8 dereferenceable(56) %9, i32 noundef %25)
  store i32 %26, ptr %7, align 4, !tbaa !64
  %27 = load i32, ptr %7, align 4, !tbaa !64
  switch i32 %27, label %29 [
    i32 1, label %28
    i32 0, label %30
  ]

28:                                               ; preds = %24
  store i8 0, ptr %3, align 1
  store i32 1, ptr %8, align 4
  br label %31

29:                                               ; preds = %24
  br label %30

30:                                               ; preds = %24, %29
  store i8 1, ptr %3, align 1
  store i32 1, ptr %8, align 4
  br label %31

31:                                               ; preds = %30, %28
  call void @llvm.lifetime.end.p0(i64 4, ptr %7) #13
  call void @llvm.lifetime.end.p0(i64 4, ptr %6) #13
  br label %32

32:                                               ; preds = %31, %23, %18
  %33 = load i8, ptr %3, align 1
  ret i8 %33
}