; Function Attrs: mustprogress uwtable
define noundef signext range(i8 0, 2) i8 @_ZN6icu_7735SimpleFilteredSentenceBreakIterator10isBoundaryEi(ptr noundef nonnull align 8 captures(none) dereferenceable(56) %0, i32 noundef %1) unnamed_addr #2 align 2 {
  %3 = alloca i32, align 4
  %4 = getelementptr inbounds nuw i8, ptr %0, i64 40
  %5 = load ptr, ptr %4, align 8, !tbaa !23
  %6 = load ptr, ptr %5, align 8, !tbaa !3
  %7 = getelementptr inbounds nuw i8, ptr %6, i64 136
  %8 = load ptr, ptr %7, align 8
  %9 = tail call noundef signext i8 %8(ptr noundef nonnull align 8 dereferenceable(32) %5, i32 noundef %1)
  %.not = icmp eq i8 %9, 0
  br i1 %.not, label %28, label %10

10:                                               ; preds = %2
  %11 = getelementptr inbounds nuw i8, ptr %0, i64 32
  %12 = load ptr, ptr %11, align 8, !tbaa !11
  %13 = getelementptr inbounds nuw i8, ptr %12, i64 16
  %14 = load ptr, ptr %13, align 8, !tbaa !6
  %.not4 = icmp eq ptr %14, null
  br i1 %.not4, label %28, label %15

15:                                               ; preds = %10
  call void @llvm.lifetime.start.p0(i64 4, ptr nonnull %3) #14
  store i32 0, ptr %3, align 4, !tbaa !28
  %16 = getelementptr inbounds nuw i8, ptr %0, i64 48
  %17 = load ptr, ptr %4, align 8, !tbaa !23
  %18 = load ptr, ptr %16, align 8, !tbaa !24
  store ptr null, ptr %16, align 8, !tbaa !24
  %19 = load ptr, ptr %17, align 8, !tbaa !3
  %20 = getelementptr inbounds nuw i8, ptr %19, i64 48
  %21 = load ptr, ptr %20, align 8
  %22 = call noundef ptr %21(ptr noundef nonnull align 8 dereferenceable(32) %17, ptr noundef %18, ptr noundef nonnull align 4 dereferenceable(4) %3)
  %23 = load ptr, ptr %16, align 8, !tbaa !24
  %.not.i.i = icmp eq ptr %23, null
  br i1 %.not.i.i, label %_ZN6icu_7735SimpleFilteredSentenceBreakIterator10resetStateER10UErrorCode.exit, label %24

24:                                               ; preds = %15
  %25 = call noundef ptr @utext_close_77(ptr noundef nonnull %23)
  br label %_ZN6icu_7735SimpleFilteredSentenceBreakIterator10resetStateER10UErrorCode.exit

_ZN6icu_7735SimpleFilteredSentenceBreakIterator10resetStateER10UErrorCode.exit: ; preds = %15, %24
  store ptr %22, ptr %16, align 8, !tbaa !24
  %26 = call noundef i32 @_ZN6icu_7735SimpleFilteredSentenceBreakIterator16breakExceptionAtEi(ptr noundef nonnull align 8 dereferenceable(56) %0, i32 noundef %1)
  %27 = trunc nuw nsw i32 %26 to i8
  %. = xor i8 %27, 1
  call void @llvm.lifetime.end.p0(i64 4, ptr nonnull %3) #14
  br label %28

28:                                               ; preds = %10, %2, %_ZN6icu_7735SimpleFilteredSentenceBreakIterator10resetStateER10UErrorCode.exit
  %.0 = phi i8 [ %., %_ZN6icu_7735SimpleFilteredSentenceBreakIterator10resetStateER10UErrorCode.exit ], [ 0, %2 ], [ 1, %10 ]
  ret i8 %.0
}